; Function Attrs: mustprogress nounwind uwtable
define dso_local noundef zeroext i1 @_ZN5clang17MultiplexConsumer18HandleTopLevelDeclENS_12DeclGroupRefE(ptr noundef nonnull readonly align 8 captures(none) dereferenceable(56) %0, ptr %1) unnamed_addr #0 align 2 {
  %3 = getelementptr inbounds nuw i8, ptr %0, i64 16
  %4 = load ptr, ptr %3, align 8
  %5 = getelementptr inbounds nuw i8, ptr %0, i64 24
  %6 = load ptr, ptr %5, align 8
  %.not9 = icmp eq ptr %4, %6
  br i1 %.not9, label %._crit_edge, label %.lr.ph

.lr.ph:                                           ; preds = %2, %13
  %.011 = phi i1 [ %14, %13 ], [ true, %2 ]
  %.sroa.06.010 = phi ptr [ %15, %13 ], [ %4, %2 ]
  br i1 %.011, label %7, label %13

7:                                                ; preds = %.lr.ph
  %8 = load ptr, ptr %.sroa.06.010, align 8
  %9 = load ptr, ptr %8, align 8
  %10 = getelementptr inbounds nuw i8, ptr %9, i64 24
  %11 = load ptr, ptr %10, align 8
  %12 = tail call noundef zeroext i1 %11(ptr noundef nonnull align 8 dereferenceable(9) %8, ptr %1) #14
  br label %13

13:                                               ; preds = %7, %.lr.ph
  %14 = phi i1 [ false, %.lr.ph ], [ %12, %7 ]
  %15 = getelementptr inbounds nuw i8, ptr %.sroa.06.010, i64 8
  %.not = icmp eq ptr %15, %6
  br i1 %.not, label %._crit_edge, label %.lr.ph

._crit_edge:                                      ; preds = %13, %2
  %.0.lcssa = phi i1 [ true, %2 ], [ %14, %13 ]
  ret i1 %.0.lcssa
}